target datalayout = "e-m:e-p270:32:32-p271:32:32-p272:64:64-i64:64-i128:128-f80:128-n8:16:32:64-S128"
target triple = "x86_64-pc-linux-gnu"

%"class.metaspace::VirtualSpaceList" = type { ptr, ptr, ptr, %"class.metaspace::AbstractCounter", i8, ptr, %"class.metaspace::AbstractCounter.0", %"class.metaspace::AbstractCounter.0" }
%"class.metaspace::AbstractCounter" = type { i32 }
%"class.metaspace::AbstractCounter.0" = type { i64 }

@_ZTVN9metaspace16VirtualSpaceListE = hidden unnamed_addr constant { [4 x ptr] } { [4 x ptr] [ptr null, ptr null, ptr @_ZN9metaspace16VirtualSpaceListD1Ev, ptr @_ZN9metaspace16VirtualSpaceListD0Ev] }, align 8

; Function Attrs: mustprogress nounwind uwtable
define linkonce_odr hidden void @_ZN9metaspace15AbstractCounterImEC2Ev(ptr noundef nonnull align 8 dereferenceable(8) %0) unnamed_addr #1 comdat align 2 {
  %2 = alloca ptr, align 8
  store ptr %0, ptr %2, align 8
  %3 = load ptr, ptr %2, align 8
  %4 = getelementptr inbounds %"class.metaspace::AbstractCounter.0", ptr %3, i32 0, i32 0
  store i64 0, ptr %4, align 8
  ret void
}

; Function Attrs: mustprogress nounwind uwtable
define linkonce_odr hidden void @_ZN9metaspace15AbstractCounterIjEC2Ev(ptr noundef nonnull align 4 dereferenceable(4) %0) unnamed_addr #1 comdat align 2 {
  %2 = alloca ptr, align 8
  store ptr %0, ptr %2, align 8
  %3 = load ptr, ptr %2, align 8
  %4 = getelementptr inbounds %"class.metaspace::AbstractCounter", ptr %3, i32 0, i32 0
  store i32 0, ptr %4, align 4
  ret void
}

; Function Attrs: mustprogress nounwind uwtable
define hidden void @_ZN9metaspace16VirtualSpaceListC2EPKcPNS_13CommitLimiterE(ptr noundef nonnull align 8 dereferenceable(56) %0, ptr noundef %1, ptr noundef %2) unnamed_addr #1 align 2 {
  %4 = alloca ptr, align 8
  %5 = alloca ptr, align 8
  %6 = alloca ptr, align 8
  store ptr %0, ptr %4, align 8
  store ptr %1, ptr %5, align 8
  store ptr %2, ptr %6, align 8
  %7 = load ptr, ptr %4, align 8
  store ptr getelementptr inbounds inrange(-16, 16) ({ [4 x ptr] }, ptr @_ZTVN9metaspace16VirtualSpaceListE, i32 0, i32 0, i32 2), ptr %7, align 8
  %8 = getelementptr inbounds %"class.metaspace::VirtualSpaceList", ptr %7, i32 0, i32 1
  %9 = load ptr, ptr %5, align 8
  store ptr %9, ptr %8, align 8
  %10 = getelementptr inbounds %"class.metaspace::VirtualSpaceList", ptr %7, i32 0, i32 2
  store volatile ptr null, ptr %10, align 8
  %11 = getelementptr inbounds %"class.metaspace::VirtualSpaceList", ptr %7, i32 0, i32 3
  call void @_ZN9metaspace15AbstractCounterIjEC2Ev(ptr noundef nonnull align 4 dereferenceable(4) %11)
  %12 = getelementptr inbounds %"class.metaspace::VirtualSpaceList", ptr %7, i32 0, i32 4
  store i8 1, ptr %12, align 4
  %13 = getelementptr inbounds %"class.metaspace::VirtualSpaceList", ptr %7, i32 0, i32 5
  %14 = load ptr, ptr %6, align 8
  store ptr %14, ptr %13, align 8
  %15 = getelementptr inbounds %"class.metaspace::VirtualSpaceList", ptr %7, i32 0, i32 6
  call void @_ZN9metaspace15AbstractCounterImEC2Ev(ptr noundef nonnull align 8 dereferenceable(8) %15)
  %16 = getelementptr inbounds %"class.metaspace::VirtualSpaceList", ptr %7, i32 0, i32 7
  call void @_ZN9metaspace15AbstractCounterImEC2Ev(ptr noundef nonnull align 8 dereferenceable(8) %16)
  ret void
}