; Function Attrs: mustprogress nofree norecurse nounwind memory(argmem: readwrite, inaccessiblemem: readwrite) uwtable
define hidden void @_ZN9metaspace16VirtualSpaceListC2EPKcPNS_13CommitLimiterE(ptr noundef nonnull align 8 dereferenceable(56) %0, ptr noundef %1, ptr noundef %2) unnamed_addr #0 align 2 {
  store ptr getelementptr inbounds inrange(-16, 16) (i8, ptr @_ZTVN9metaspace16VirtualSpaceListE, i64 16), ptr %0, align 8
  %4 = getelementptr inbounds i8, ptr %0, i64 8
  store ptr %1, ptr %4, align 8
  %5 = getelementptr inbounds i8, ptr %0, i64 16
  store volatile ptr null, ptr %5, align 8
  %6 = getelementptr inbounds i8, ptr %0, i64 24
  store i32 0, ptr %6, align 8
  %7 = getelementptr inbounds i8, ptr %0, i64 28
  store i8 1, ptr %7, align 4
  %8 = getelementptr inbounds i8, ptr %0, i64 32
  store ptr %2, ptr %8, align 8
  %9 = getelementptr inbounds i8, ptr %0, i64 40
  tail call void @llvm.memset.p0.i64(ptr noundef nonnull align 8 dereferenceable(16) %9, i8 0, i64 16, i1 false)
  ret void
}